target datalayout = "e-m:e-p270:32:32-p271:32:32-p272:64:64-i64:64-i128:128-f80:128-n8:16:32:64-S128"
target triple = "x86_64-pc-linux-gnu"

%struct.AVRational = type { i32, i32 }
%struct.AVColorPrimariesDesc = type { %struct.AVCIExy, %struct.AVPrimaryCoefficients }
%struct.AVCIExy = type { %struct.AVRational, %struct.AVRational }
%struct.AVPrimaryCoefficients = type { %struct.AVCIExy, %struct.AVCIExy, %struct.AVCIExy }

; Function Attrs: inlinehint nounwind uwtable
define internal i32 @av_cmp_q(i64 %0, i64 %1) #5 {
  %3 = alloca i32, align 4
  %4 = alloca %struct.AVRational, align 4
  %5 = alloca %struct.AVRational, align 4
  %6 = alloca i64, align 8
  %7 = alloca i32, align 4
  store i64 %0, ptr %4, align 4
  store i64 %1, ptr %5, align 4
  call void @llvm.lifetime.start.p0(i64 8, ptr %6) #7
  %8 = getelementptr inbounds nuw %struct.AVRational, ptr %4, i32 0, i32 0
  %9 = load i32, ptr %8, align 4, !tbaa !23
  %10 = sext i32 %9 to i64
  %11 = getelementptr inbounds nuw %struct.AVRational, ptr %5, i32 0, i32 1
  %12 = load i32, ptr %11, align 4, !tbaa !24
  %13 = sext i32 %12 to i64
  %14 = mul nsw i64 %10, %13
  %15 = getelementptr inbounds nuw %struct.AVRational, ptr %5, i32 0, i32 0
  %16 = load i32, ptr %15, align 4, !tbaa !23
  %17 = sext i32 %16 to i64
  %18 = getelementptr inbounds nuw %struct.AVRational, ptr %4, i32 0, i32 1
  %19 = load i32, ptr %18, align 4, !tbaa !24
  %20 = sext i32 %19 to i64
  %21 = mul nsw i64 %17, %20
  %22 = sub nsw i64 %14, %21
  store i64 %22, ptr %6, align 8, !tbaa !25
  %23 = load i64, ptr %6, align 8, !tbaa !25
  %24 = icmp ne i64 %23, 0
  br i1 %24, label %25, label %38

25:                                               ; preds = %2
  %26 = load i64, ptr %6, align 8, !tbaa !25
  %27 = getelementptr inbounds nuw %struct.AVRational, ptr %4, i32 0, i32 1
  %28 = load i32, ptr %27, align 4, !tbaa !24
  %29 = sext i32 %28 to i64
  %30 = xor i64 %26, %29
  %31 = getelementptr inbounds nuw %struct.AVRational, ptr %5, i32 0, i32 1
  %32 = load i32, ptr %31, align 4, !tbaa !24
  %33 = sext i32 %32 to i64
  %34 = xor i64 %30, %33
  %35 = ashr i64 %34, 63
  %36 = trunc i64 %35 to i32
  %37 = or i32 %36, 1
  store i32 %37, ptr %3, align 4
  store i32 1, ptr %7, align 4
  br label %64

38:                                               ; preds = %2
  %39 = getelementptr inbounds nuw %struct.AVRational, ptr %5, i32 0, i32 1
  %40 = load i32, ptr %39, align 4, !tbaa !24
  %41 = icmp ne i32 %40, 0
  br i1 %41, label %42, label %47

42:                                               ; preds = %38
  %43 = getelementptr inbounds nuw %struct.AVRational, ptr %4, i32 0, i32 1
  %44 = load i32, ptr %43, align 4, !tbaa !24
  %45 = icmp ne i32 %44, 0
  br i1 %45, label %46, label %47

46:                                               ; preds = %42
  store i32 0, ptr %3, align 4
  store i32 1, ptr %7, align 4
  br label %64

47:                                               ; preds = %42, %38
  %48 = getelementptr inbounds nuw %struct.AVRational, ptr %4, i32 0, i32 0
  %49 = load i32, ptr %48, align 4, !tbaa !23
  %50 = icmp ne i32 %49, 0
  br i1 %50, label %51, label %63

51:                                               ; preds = %47
  %52 = getelementptr inbounds nuw %struct.AVRational, ptr %5, i32 0, i32 0
  %53 = load i32, ptr %52, align 4, !tbaa !23
  %54 = icmp ne i32 %53, 0
  br i1 %54, label %55, label %63

55:                                               ; preds = %51
  %56 = getelementptr inbounds nuw %struct.AVRational, ptr %4, i32 0, i32 0
  %57 = load i32, ptr %56, align 4, !tbaa !23
  %58 = ashr i32 %57, 31
  %59 = getelementptr inbounds nuw %struct.AVRational, ptr %5, i32 0, i32 0
  %60 = load i32, ptr %59, align 4, !tbaa !23
  %61 = ashr i32 %60, 31
  %62 = sub nsw i32 %58, %61
  store i32 %62, ptr %3, align 4
  store i32 1, ptr %7, align 4
  br label %64

63:                                               ; preds = %51, %47
  store i32 -2147483648, ptr %3, align 4
  store i32 1, ptr %7, align 4
  br label %64

64:                                               ; preds = %63, %55, %46, %25
  call void @llvm.lifetime.end.p0(i64 8, ptr %6) #7
  %65 = load i32, ptr %3, align 4
  ret i32 %65
}

; Function Attrs: inlinehint nounwind uwtable
define internal i64 @av_make_q(i32 noundef %0, i32 noundef %1) #5 {
  %3 = alloca %struct.AVRational, align 4
  %4 = alloca i32, align 4
  %5 = alloca i32, align 4
  store i32 %0, ptr %4, align 4, !tbaa !4
  store i32 %1, ptr %5, align 4, !tbaa !4
  %6 = getelementptr inbounds nuw %struct.AVRational, ptr %3, i32 0, i32 0
  %7 = load i32, ptr %4, align 4, !tbaa !4
  store i32 %7, ptr %6, align 4, !tbaa !23
  %8 = getelementptr inbounds nuw %struct.AVRational, ptr %3, i32 0, i32 1
  %9 = load i32, ptr %5, align 4, !tbaa !4
  store i32 %9, ptr %8, align 4, !tbaa !24
  %10 = load i64, ptr %3, align 4
  ret i64 %10
}

; Function Attrs: alwaysinline nounwind uwtable
define internal i64 @abs_sub_q(i64 %0, i64 %1) #2 {
  %3 = alloca %struct.AVRational, align 4
  %4 = alloca %struct.AVRational, align 4
  %5 = alloca %struct.AVRational, align 4
  %6 = alloca %struct.AVRational, align 4
  store i64 %0, ptr %4, align 4
  store i64 %1, ptr %5, align 4
  call void @llvm.lifetime.start.p0(i64 8, ptr %6) #7
  %7 = load i64, ptr %4, align 4
  %8 = load i64, ptr %5, align 4
  %9 = call i64 @av_sub_q(i64 %7, i64 %8) #8
  store i64 %9, ptr %6, align 4
  %10 = getelementptr inbounds nuw %struct.AVRational, ptr %6, i32 0, i32 0
  %11 = load i32, ptr %10, align 4, !tbaa !23
  %12 = call i32 @llvm.abs.i32(i32 %11, i1 true)
  %13 = getelementptr inbounds nuw %struct.AVRational, ptr %6, i32 0, i32 1
  %14 = load i32, ptr %13, align 4, !tbaa !24
  %15 = call i64 @av_make_q(i32 noundef %12, i32 noundef %14)
  store i64 %15, ptr %3, align 4
  call void @llvm.lifetime.end.p0(i64 8, ptr %6) #7
  %16 = load i64, ptr %3, align 4
  ret i64 %16
}

; Function Attrs: nounwind uwtable
define i32 @av_csp_primaries_id_from_desc(ptr noundef %0) #0 {
  %2 = alloca i32, align 4
  %3 = alloca ptr, align 8
  %4 = alloca %struct.AVRational, align 4
  %5 = alloca i32, align 4
  %6 = alloca i32, align 4
  %7 = alloca ptr, align 8
  %8 = alloca %struct.AVRational, align 4
  %9 = alloca %struct.AVRational, align 4
  %10 = alloca %struct.AVRational, align 4
  %11 = alloca %struct.AVRational, align 4
  %12 = alloca %struct.AVRational, align 4
  %13 = alloca %struct.AVRational, align 4
  %14 = alloca %struct.AVRational, align 4
  %15 = alloca %struct.AVRational, align 4
  %16 = alloca %struct.AVRational, align 4
  %17 = alloca %struct.AVRational, align 4
  %18 = alloca %struct.AVRational, align 4
  %19 = alloca %struct.AVRational, align 4
  %20 = alloca %struct.AVRational, align 4
  %21 = alloca %struct.AVRational, align 4
  %22 = alloca %struct.AVRational, align 4
  %23 = alloca %struct.AVRational, align 4
  store ptr %0, ptr %3, align 8, !tbaa !14
  call void @llvm.lifetime.start.p0(i64 8, ptr %4) #7
  call void @llvm.lifetime.start.p0(i64 4, ptr %5) #7
  store i32 0, ptr %5, align 4, !tbaa !4
  br label %24

24:                                               ; preds = %157, %1
  %25 = load i32, ptr %5, align 4, !tbaa !4
  %26 = icmp ult i32 %25, 23
  br i1 %26, label %28, label %27

27:                                               ; preds = %24
  store i32 2, ptr %6, align 4
  br label %160

28:                                               ; preds = %24
  call void @llvm.lifetime.start.p0(i64 8, ptr %7) #7
  %29 = load i32, ptr %5, align 4, !tbaa !4
  %30 = zext i32 %29 to i64
  %31 = getelementptr inbounds nuw [23 x %struct.AVColorPrimariesDesc], ptr @color_primaries, i64 0, i64 %30
  store ptr %31, ptr %7, align 8, !tbaa !14
  %32 = load ptr, ptr %7, align 8, !tbaa !14
  %33 = getelementptr inbounds nuw %struct.AVColorPrimariesDesc, ptr %32, i32 0, i32 1
  %34 = getelementptr inbounds nuw %struct.AVPrimaryCoefficients, ptr %33, i32 0, i32 0
  %35 = getelementptr inbounds nuw %struct.AVCIExy, ptr %34, i32 0, i32 0
  %36 = getelementptr inbounds nuw %struct.AVRational, ptr %35, i32 0, i32 0
  %37 = load i32, ptr %36, align 4, !tbaa !16
  %38 = icmp ne i32 %37, 0
  br i1 %38, label %40, label %39

39:                                               ; preds = %28
  store i32 4, ptr %6, align 4
  br label %154

40:                                               ; preds = %28
  call void @llvm.lifetime.start.p0(i64 8, ptr %8) #7
  %41 = load ptr, ptr %3, align 8, !tbaa !14
  %42 = getelementptr inbounds nuw %struct.AVColorPrimariesDesc, ptr %41, i32 0, i32 1
  %43 = getelementptr inbounds nuw %struct.AVPrimaryCoefficients, ptr %42, i32 0, i32 0
  %44 = getelementptr inbounds nuw %struct.AVCIExy, ptr %43, i32 0, i32 0
  %45 = load ptr, ptr %7, align 8, !tbaa !14
  %46 = getelementptr inbounds nuw %struct.AVColorPrimariesDesc, ptr %45, i32 0, i32 1
  %47 = getelementptr inbounds nuw %struct.AVPrimaryCoefficients, ptr %46, i32 0, i32 0
  %48 = getelementptr inbounds nuw %struct.AVCIExy, ptr %47, i32 0, i32 0
  %49 = load i64, ptr %44, align 4
  %50 = load i64, ptr %48, align 4
  %51 = call i64 @abs_sub_q(i64 %49, i64 %50)
  store i64 %51, ptr %8, align 4
  call void @llvm.memcpy.p0.p0.i64(ptr align 4 %4, ptr align 4 %8, i64 8, i1 false), !tbaa.struct !20
  call void @llvm.lifetime.end.p0(i64 8, ptr %8) #7
  call void @llvm.lifetime.start.p0(i64 8, ptr %9) #7
  %52 = load ptr, ptr %3, align 8, !tbaa !14
  %53 = getelementptr inbounds nuw %struct.AVColorPrimariesDesc, ptr %52, i32 0, i32 1
  %54 = getelementptr inbounds nuw %struct.AVPrimaryCoefficients, ptr %53, i32 0, i32 0
  %55 = getelementptr inbounds nuw %struct.AVCIExy, ptr %54, i32 0, i32 1
  %56 = load ptr, ptr %7, align 8, !tbaa !14
  %57 = getelementptr inbounds nuw %struct.AVColorPrimariesDesc, ptr %56, i32 0, i32 1
  %58 = getelementptr inbounds nuw %struct.AVPrimaryCoefficients, ptr %57, i32 0, i32 0
  %59 = getelementptr inbounds nuw %struct.AVCIExy, ptr %58, i32 0, i32 1
  %60 = load i64, ptr %55, align 4
  %61 = load i64, ptr %59, align 4
  %62 = call i64 @abs_sub_q(i64 %60, i64 %61)
  store i64 %62, ptr %10, align 4
  %63 = load i64, ptr %4, align 4
  %64 = load i64, ptr %10, align 4
  %65 = call i64 @av_add_q(i64 %63, i64 %64) #8
  store i64 %65, ptr %9, align 4
  call void @llvm.memcpy.p0.p0.i64(ptr align 4 %4, ptr align 4 %9, i64 8, i1 false), !tbaa.struct !20
  call void @llvm.lifetime.end.p0(i64 8, ptr %9) #7
  call void @llvm.lifetime.start.p0(i64 8, ptr %11) #7
  %66 = load ptr, ptr %3, align 8, !tbaa !14
  %67 = getelementptr inbounds nuw %struct.AVColorPrimariesDesc, ptr %66, i32 0, i32 1
  %68 = getelementptr inbounds nuw %struct.AVPrimaryCoefficients, ptr %67, i32 0, i32 1
  %69 = getelementptr inbounds nuw %struct.AVCIExy, ptr %68, i32 0, i32 0
  %70 = load ptr, ptr %7, align 8, !tbaa !14
  %71 = getelementptr inbounds nuw %struct.AVColorPrimariesDesc, ptr %70, i32 0, i32 1
  %72 = getelementptr inbounds nuw %struct.AVPrimaryCoefficients, ptr %71, i32 0, i32 1
  %73 = getelementptr inbounds nuw %struct.AVCIExy, ptr %72, i32 0, i32 0
  %74 = load i64, ptr %69, align 4
  %75 = load i64, ptr %73, align 4
  %76 = call i64 @abs_sub_q(i64 %74, i64 %75)
  store i64 %76, ptr %12, align 4
  %77 = load i64, ptr %4, align 4
  %78 = load i64, ptr %12, align 4
  %79 = call i64 @av_add_q(i64 %77, i64 %78) #8
  store i64 %79, ptr %11, align 4
  call void @llvm.memcpy.p0.p0.i64(ptr align 4 %4, ptr align 4 %11, i64 8, i1 false), !tbaa.struct !20
  call void @llvm.lifetime.end.p0(i64 8, ptr %11) #7
  call void @llvm.lifetime.start.p0(i64 8, ptr %13) #7
  %80 = load ptr, ptr %3, align 8, !tbaa !14
  %81 = getelementptr inbounds nuw %struct.AVColorPrimariesDesc, ptr %80, i32 0, i32 1
  %82 = getelementptr inbounds nuw %struct.AVPrimaryCoefficients, ptr %81, i32 0, i32 1
  %83 = getelementptr inbounds nuw %struct.AVCIExy, ptr %82, i32 0, i32 1
  %84 = load ptr, ptr %7, align 8, !tbaa !14
  %85 = getelementptr inbounds nuw %struct.AVColorPrimariesDesc, ptr %84, i32 0, i32 1
  %86 = getelementptr inbounds nuw %struct.AVPrimaryCoefficients, ptr %85, i32 0, i32 1
  %87 = getelementptr inbounds nuw %struct.AVCIExy, ptr %86, i32 0, i32 1
  %88 = load i64, ptr %83, align 4
  %89 = load i64, ptr %87, align 4
  %90 = call i64 @abs_sub_q(i64 %88, i64 %89)
  store i64 %90, ptr %14, align 4
  %91 = load i64, ptr %4, align 4
  %92 = load i64, ptr %14, align 4
  %93 = call i64 @av_add_q(i64 %91, i64 %92) #8
  store i64 %93, ptr %13, align 4
  call void @llvm.memcpy.p0.p0.i64(ptr align 4 %4, ptr align 4 %13, i64 8, i1 false), !tbaa.struct !20
  call void @llvm.lifetime.end.p0(i64 8, ptr %13) #7
  call void @llvm.lifetime.start.p0(i64 8, ptr %15) #7
  %94 = load ptr, ptr %3, align 8, !tbaa !14
  %95 = getelementptr inbounds nuw %struct.AVColorPrimariesDesc, ptr %94, i32 0, i32 1
  %96 = getelementptr inbounds nuw %struct.AVPrimaryCoefficients, ptr %95, i32 0, i32 2
  %97 = getelementptr inbounds nuw %struct.AVCIExy, ptr %96, i32 0, i32 0
  %98 = load ptr, ptr %7, align 8, !tbaa !14
  %99 = getelementptr inbounds nuw %struct.AVColorPrimariesDesc, ptr %98, i32 0, i32 1
  %100 = getelementptr inbounds nuw %struct.AVPrimaryCoefficients, ptr %99, i32 0, i32 2
  %101 = getelementptr inbounds nuw %struct.AVCIExy, ptr %100, i32 0, i32 0
  %102 = load i64, ptr %97, align 4
  %103 = load i64, ptr %101, align 4
  %104 = call i64 @abs_sub_q(i64 %102, i64 %103)
  store i64 %104, ptr %16, align 4
  %105 = load i64, ptr %4, align 4
  %106 = load i64, ptr %16, align 4
  %107 = call i64 @av_add_q(i64 %105, i64 %106) #8
  store i64 %107, ptr %15, align 4
  call void @llvm.memcpy.p0.p0.i64(ptr align 4 %4, ptr align 4 %15, i64 8, i1 false), !tbaa.struct !20
  call void @llvm.lifetime.end.p0(i64 8, ptr %15) #7
  call void @llvm.lifetime.start.p0(i64 8, ptr %17) #7
  %108 = load ptr, ptr %3, align 8, !tbaa !14
  %109 = getelementptr inbounds nuw %struct.AVColorPrimariesDesc, ptr %108, i32 0, i32 1
  %110 = getelementptr inbounds nuw %struct.AVPrimaryCoefficients, ptr %109, i32 0, i32 2
  %111 = getelementptr inbounds nuw %struct.AVCIExy, ptr %110, i32 0, i32 1
  %112 = load ptr, ptr %7, align 8, !tbaa !14
  %113 = getelementptr inbounds nuw %struct.AVColorPrimariesDesc, ptr %112, i32 0, i32 1
  %114 = getelementptr inbounds nuw %struct.AVPrimaryCoefficients, ptr %113, i32 0, i32 2
  %115 = getelementptr inbounds nuw %struct.AVCIExy, ptr %114, i32 0, i32 1
  %116 = load i64, ptr %111, align 4
  %117 = load i64, ptr %115, align 4
  %118 = call i64 @abs_sub_q(i64 %116, i64 %117)
  store i64 %118, ptr %18, align 4
  %119 = load i64, ptr %4, align 4
  %120 = load i64, ptr %18, align 4
  %121 = call i64 @av_add_q(i64 %119, i64 %120) #8
  store i64 %121, ptr %17, align 4
  call void @llvm.memcpy.p0.p0.i64(ptr align 4 %4, ptr align 4 %17, i64 8, i1 false), !tbaa.struct !20
  call void @llvm.lifetime.end.p0(i64 8, ptr %17) #7
  call void @llvm.lifetime.start.p0(i64 8, ptr %19) #7
  %122 = load ptr, ptr %3, align 8, !tbaa !14
  %123 = getelementptr inbounds nuw %struct.AVColorPrimariesDesc, ptr %122, i32 0, i32 0
  %124 = getelementptr inbounds nuw %struct.AVCIExy, ptr %123, i32 0, i32 0
  %125 = load ptr, ptr %7, align 8, !tbaa !14
  %126 = getelementptr inbounds nuw %struct.AVColorPrimariesDesc, ptr %125, i32 0, i32 0
  %127 = getelementptr inbounds nuw %struct.AVCIExy, ptr %126, i32 0, i32 0
  %128 = load i64, ptr %124, align 4
  %129 = load i64, ptr %127, align 4
  %130 = call i64 @abs_sub_q(i64 %128, i64 %129)
  store i64 %130, ptr %20, align 4
  %131 = load i64, ptr %4, align 4
  %132 = load i64, ptr %20, align 4
  %133 = call i64 @av_add_q(i64 %131, i64 %132) #8
  store i64 %133, ptr %19, align 4
  call void @llvm.memcpy.p0.p0.i64(ptr align 4 %4, ptr align 4 %19, i64 8, i1 false), !tbaa.struct !20
  call void @llvm.lifetime.end.p0(i64 8, ptr %19) #7
  call void @llvm.lifetime.start.p0(i64 8, ptr %21) #7
  %134 = load ptr, ptr %3, align 8, !tbaa !14
  %135 = getelementptr inbounds nuw %struct.AVColorPrimariesDesc, ptr %134, i32 0, i32 0
  %136 = getelementptr inbounds nuw %struct.AVCIExy, ptr %135, i32 0, i32 1
  %137 = load ptr, ptr %7, align 8, !tbaa !14
  %138 = getelementptr inbounds nuw %struct.AVColorPrimariesDesc, ptr %137, i32 0, i32 0
  %139 = getelementptr inbounds nuw %struct.AVCIExy, ptr %138, i32 0, i32 1
  %140 = load i64, ptr %136, align 4
  %141 = load i64, ptr %139, align 4
  %142 = call i64 @abs_sub_q(i64 %140, i64 %141)
  store i64 %142, ptr %22, align 4
  %143 = load i64, ptr %4, align 4
  %144 = load i64, ptr %22, align 4
  %145 = call i64 @av_add_q(i64 %143, i64 %144) #8
  store i64 %145, ptr %21, align 4
  call void @llvm.memcpy.p0.p0.i64(ptr align 4 %4, ptr align 4 %21, i64 8, i1 false), !tbaa.struct !20
  call void @llvm.lifetime.end.p0(i64 8, ptr %21) #7
  %146 = call i64 @av_make_q(i32 noundef 1, i32 noundef 1000)
  store i64 %146, ptr %23, align 4
  %147 = load i64, ptr %4, align 4
  %148 = load i64, ptr %23, align 4
  %149 = call i32 @av_cmp_q(i64 %147, i64 %148)
  %150 = icmp slt i32 %149, 0
  br i1 %150, label %151, label %153

151:                                              ; preds = %40
  %152 = load i32, ptr %5, align 4, !tbaa !4
  store i32 %152, ptr %2, align 4
  store i32 1, ptr %6, align 4
  br label %154

153:                                              ; preds = %40
  store i32 0, ptr %6, align 4
  br label %154

154:                                              ; preds = %153, %151, %39
  call void @llvm.lifetime.end.p0(i64 8, ptr %7) #7
  %155 = load i32, ptr %6, align 4
  switch i32 %155, label %160 [
    i32 0, label %156
    i32 4, label %157
  ]

156:                                              ; preds = %154
  br label %157

157:                                              ; preds = %156, %154
  %158 = load i32, ptr %5, align 4, !tbaa !4
  %159 = add i32 %158, 1
  store i32 %159, ptr %5, align 4, !tbaa !4
  br label %24, !llvm.loop !21

160:                                              ; preds = %154, %27
  call void @llvm.lifetime.end.p0(i64 4, ptr %5) #7
  %161 = load i32, ptr %6, align 4
  switch i32 %161, label %163 [
    i32 2, label %162
  ]

162:                                              ; preds = %160
  store i32 2, ptr %2, align 4
  store i32 1, ptr %6, align 4
  br label %163

163:                                              ; preds = %162, %160
  call void @llvm.lifetime.end.p0(i64 8, ptr %4) #7
  %164 = load i32, ptr %2, align 4
  ret i32 %164
}