; Function Attrs: nofree nosync nounwind memory(argmem: read) uwtable
define i32 @av_csp_primaries_id_from_desc(ptr noundef readonly captures(none) %0) local_unnamed_addr #2 {
  %2 = getelementptr inbounds nuw i8, ptr %0, i64 16
  %3 = getelementptr inbounds nuw i8, ptr %0, i64 24
  %4 = getelementptr inbounds nuw i8, ptr %0, i64 32
  %5 = getelementptr inbounds nuw i8, ptr %0, i64 40
  %6 = getelementptr inbounds nuw i8, ptr %0, i64 48
  %7 = getelementptr inbounds nuw i8, ptr %0, i64 56
  %8 = getelementptr inbounds nuw i8, ptr %0, i64 8
  br label %9

9:                                                ; preds = %1, %av_cmp_q.exit.thread103
  %indvars.iv = phi i64 [ 0, %1 ], [ %indvars.iv.next, %av_cmp_q.exit.thread103 ]
  %10 = getelementptr inbounds nuw [23 x %struct.AVColorPrimariesDesc], ptr @color_primaries, i64 0, i64 %indvars.iv
  %11 = getelementptr inbounds nuw i8, ptr %10, i64 16
  %12 = load i32, ptr %11, align 16, !tbaa !10
  %.not = icmp eq i32 %12, 0
  br i1 %.not, label %av_cmp_q.exit.thread103, label %13

13:                                               ; preds = %9
  %14 = load i64, ptr %2, align 4
  %15 = load i64, ptr %11, align 16
  %16 = tail call i64 @av_sub_q(i64 %14, i64 %15) #7
  %.sroa.0.0.extract.trunc.i = trunc i64 %16 to i32
  %.sroa.4.0.extract.shift.i = and i64 %16, -4294967296
  %17 = tail call i32 @llvm.abs.i32(i32 %.sroa.0.0.extract.trunc.i, i1 true)
  %.sroa.0.0.insert.ext.i = zext nneg i32 %17 to i64
  %.sroa.0.0.insert.insert.i = or disjoint i64 %.sroa.4.0.extract.shift.i, %.sroa.0.0.insert.ext.i
  %18 = getelementptr inbounds nuw i8, ptr %10, i64 24
  %19 = load i64, ptr %3, align 4
  %20 = load i64, ptr %18, align 8
  %21 = tail call i64 @av_sub_q(i64 %19, i64 %20) #7
  %.sroa.0.0.extract.trunc.i49 = trunc i64 %21 to i32
  %.sroa.4.0.extract.shift.i50 = and i64 %21, -4294967296
  %22 = tail call i32 @llvm.abs.i32(i32 %.sroa.0.0.extract.trunc.i49, i1 true)
  %.sroa.0.0.insert.ext.i72 = zext nneg i32 %22 to i64
  %.sroa.0.0.insert.insert.i73 = or disjoint i64 %.sroa.4.0.extract.shift.i50, %.sroa.0.0.insert.ext.i72
  %23 = tail call i64 @av_add_q(i64 %.sroa.0.0.insert.insert.i, i64 %.sroa.0.0.insert.insert.i73) #7
  %24 = getelementptr inbounds nuw i8, ptr %10, i64 32
  %25 = load i64, ptr %4, align 4
  %26 = load i64, ptr %24, align 16
  %27 = tail call i64 @av_sub_q(i64 %25, i64 %26) #7
  %.sroa.0.0.extract.trunc.i52 = trunc i64 %27 to i32
  %.sroa.4.0.extract.shift.i53 = and i64 %27, -4294967296
  %28 = tail call i32 @llvm.abs.i32(i32 %.sroa.0.0.extract.trunc.i52, i1 true)
  %.sroa.0.0.insert.ext.i76 = zext nneg i32 %28 to i64
  %.sroa.0.0.insert.insert.i77 = or disjoint i64 %.sroa.4.0.extract.shift.i53, %.sroa.0.0.insert.ext.i76
  %29 = tail call i64 @av_add_q(i64 %23, i64 %.sroa.0.0.insert.insert.i77) #7
  %30 = getelementptr inbounds nuw i8, ptr %10, i64 40
  %31 = load i64, ptr %5, align 4
  %32 = load i64, ptr %30, align 8
  %33 = tail call i64 @av_sub_q(i64 %31, i64 %32) #7
  %.sroa.0.0.extract.trunc.i55 = trunc i64 %33 to i32
  %.sroa.4.0.extract.shift.i56 = and i64 %33, -4294967296
  %34 = tail call i32 @llvm.abs.i32(i32 %.sroa.0.0.extract.trunc.i55, i1 true)
  %.sroa.0.0.insert.ext.i80 = zext nneg i32 %34 to i64
  %.sroa.0.0.insert.insert.i81 = or disjoint i64 %.sroa.4.0.extract.shift.i56, %.sroa.0.0.insert.ext.i80
  %35 = tail call i64 @av_add_q(i64 %29, i64 %.sroa.0.0.insert.insert.i81) #7
  %36 = getelementptr inbounds nuw i8, ptr %10, i64 48
  %37 = load i64, ptr %6, align 4
  %38 = load i64, ptr %36, align 16
  %39 = tail call i64 @av_sub_q(i64 %37, i64 %38) #7
  %.sroa.0.0.extract.trunc.i58 = trunc i64 %39 to i32
  %.sroa.4.0.extract.shift.i59 = and i64 %39, -4294967296
  %40 = tail call i32 @llvm.abs.i32(i32 %.sroa.0.0.extract.trunc.i58, i1 true)
  %.sroa.0.0.insert.ext.i84 = zext nneg i32 %40 to i64
  %.sroa.0.0.insert.insert.i85 = or disjoint i64 %.sroa.4.0.extract.shift.i59, %.sroa.0.0.insert.ext.i84
  %41 = tail call i64 @av_add_q(i64 %35, i64 %.sroa.0.0.insert.insert.i85) #7
  %42 = getelementptr inbounds nuw i8, ptr %10, i64 56
  %43 = load i64, ptr %7, align 4
  %44 = load i64, ptr %42, align 8
  %45 = tail call i64 @av_sub_q(i64 %43, i64 %44) #7
  %.sroa.0.0.extract.trunc.i61 = trunc i64 %45 to i32
  %.sroa.4.0.extract.shift.i62 = and i64 %45, -4294967296
  %46 = tail call i32 @llvm.abs.i32(i32 %.sroa.0.0.extract.trunc.i61, i1 true)
  %.sroa.0.0.insert.ext.i88 = zext nneg i32 %46 to i64
  %.sroa.0.0.insert.insert.i89 = or disjoint i64 %.sroa.4.0.extract.shift.i62, %.sroa.0.0.insert.ext.i88
  %47 = tail call i64 @av_add_q(i64 %41, i64 %.sroa.0.0.insert.insert.i89) #7
  %48 = load i64, ptr %0, align 4
  %49 = load i64, ptr %10, align 16
  %50 = tail call i64 @av_sub_q(i64 %48, i64 %49) #7
  %.sroa.0.0.extract.trunc.i64 = trunc i64 %50 to i32
  %.sroa.4.0.extract.shift.i65 = and i64 %50, -4294967296
  %51 = tail call i32 @llvm.abs.i32(i32 %.sroa.0.0.extract.trunc.i64, i1 true)
  %.sroa.0.0.insert.ext.i92 = zext nneg i32 %51 to i64
  %.sroa.0.0.insert.insert.i93 = or disjoint i64 %.sroa.4.0.extract.shift.i65, %.sroa.0.0.insert.ext.i92
  %52 = tail call i64 @av_add_q(i64 %47, i64 %.sroa.0.0.insert.insert.i93) #7
  %53 = getelementptr inbounds nuw i8, ptr %10, i64 8
  %54 = load i64, ptr %8, align 4
  %55 = load i64, ptr %53, align 8
  %56 = tail call i64 @av_sub_q(i64 %54, i64 %55) #7
  %.sroa.0.0.extract.trunc.i67 = trunc i64 %56 to i32
  %.sroa.4.0.extract.shift.i68 = and i64 %56, -4294967296
  %57 = tail call i32 @llvm.abs.i32(i32 %.sroa.0.0.extract.trunc.i67, i1 true)
  %.sroa.0.0.insert.ext.i96 = zext nneg i32 %57 to i64
  %.sroa.0.0.insert.insert.i97 = or disjoint i64 %.sroa.4.0.extract.shift.i68, %.sroa.0.0.insert.ext.i96
  %58 = tail call i64 @av_add_q(i64 %52, i64 %.sroa.0.0.insert.insert.i97) #7
  %.sroa.011.0.extract.trunc.i = trunc i64 %58 to i32
  %sext.i = shl i64 %58, 32
  %59 = ashr exact i64 %sext.i, 32
  %60 = mul nsw i64 %59, 1000
  %61 = ashr i64 %58, 32
  %.not.i = icmp eq i64 %60, %61
  br i1 %.not.i, label %68, label %62

62:                                               ; preds = %13
  %63 = sub nsw i64 %60, %61
  %64 = xor i64 %63, %61
  %65 = ashr i64 %64, 63
  %66 = trunc nsw i64 %65 to i32
  %67 = or i32 %66, 1
  br label %av_cmp_q.exit

68:                                               ; preds = %13
  %69 = icmp ugt i64 %58, 4294967295
  br i1 %69, label %av_cmp_q.exit.thread103, label %70

70:                                               ; preds = %68
  %.not106 = icmp eq i32 %.sroa.011.0.extract.trunc.i, 0
  br i1 %.not106, label %av_cmp_q.exit.thread.split.loop.exit, label %71

71:                                               ; preds = %70
  %72 = ashr i32 %.sroa.011.0.extract.trunc.i, 31
  br label %av_cmp_q.exit

av_cmp_q.exit:                                    ; preds = %62, %71
  %.0.i = phi i32 [ %67, %62 ], [ %72, %71 ]
  %73 = icmp slt i32 %.0.i, 0
  br i1 %73, label %av_cmp_q.exit.thread.split.loop.exit109, label %av_cmp_q.exit.thread103

av_cmp_q.exit.thread103:                          ; preds = %68, %9, %av_cmp_q.exit
  %indvars.iv.next = add nuw nsw i64 %indvars.iv, 1
  %exitcond = icmp eq i64 %indvars.iv.next, 23
  br i1 %exitcond, label %av_cmp_q.exit.thread, label %9, !llvm.loop !14

av_cmp_q.exit.thread.split.loop.exit:             ; preds = %70
  %74 = trunc nuw nsw i64 %indvars.iv to i32
  br label %av_cmp_q.exit.thread

av_cmp_q.exit.thread.split.loop.exit109:          ; preds = %av_cmp_q.exit
  %75 = trunc nuw nsw i64 %indvars.iv to i32
  br label %av_cmp_q.exit.thread

av_cmp_q.exit.thread:                             ; preds = %av_cmp_q.exit.thread103, %av_cmp_q.exit.thread.split.loop.exit109, %av_cmp_q.exit.thread.split.loop.exit
  %spec.select = phi i32 [ %74, %av_cmp_q.exit.thread.split.loop.exit ], [ %75, %av_cmp_q.exit.thread.split.loop.exit109 ], [ 2, %av_cmp_q.exit.thread103 ]
  ret i32 %spec.select
}